; Function Attrs: nounwind uwtable
define i64 @ZSTD_compressStream(ptr noundef %0, ptr noundef %1, ptr noundef %2) local_unnamed_addr #2 {
  %4 = tail call i64 @ZSTD_compressStream2(ptr noundef %0, ptr noundef %1, ptr noundef %2, i32 noundef 0)
  %5 = icmp ult i64 %4, -119
  br i1 %5, label %6, label %ZSTD_nextInputSizeHint_MTorST.exit

6:                                                ; preds = %3
  %7 = getelementptr inbounds nuw i8, ptr %0, i64 316
  %8 = load i32, ptr %7, align 4, !tbaa !149
  %9 = icmp sgt i32 %8, 0
  br i1 %9, label %10, label %14

10:                                               ; preds = %6
  %11 = getelementptr inbounds nuw i8, ptr %0, i64 3760
  %12 = load ptr, ptr %11, align 8, !tbaa !60
  %13 = tail call i64 @ZSTDMT_nextInputSizeHint(ptr noundef %12) #28
  br label %ZSTD_nextInputSizeHint_MTorST.exit

14:                                               ; preds = %6
  %15 = getelementptr inbounds nuw i8, ptr %0, i64 364
  %16 = load i32, ptr %15, align 4, !tbaa !321
  %17 = icmp eq i32 %16, 1
  br i1 %17, label %18, label %24

18:                                               ; preds = %14
  %19 = getelementptr inbounds nuw i8, ptr %0, i64 776
  %20 = load i64, ptr %19, align 8, !tbaa !241
  %21 = getelementptr inbounds nuw i8, ptr %0, i64 3672
  %22 = load i64, ptr %21, align 8, !tbaa !322
  %23 = sub i64 %20, %22
  br label %ZSTD_nextInputSizeHint_MTorST.exit

24:                                               ; preds = %14
  %25 = getelementptr inbounds nuw i8, ptr %0, i64 3600
  %26 = load i64, ptr %25, align 8, !tbaa !323
  %27 = getelementptr inbounds nuw i8, ptr %0, i64 3592
  %28 = load i64, ptr %27, align 8, !tbaa !151
  %29 = sub i64 %26, %28
  %30 = icmp eq i64 %29, 0
  br i1 %30, label %31, label %ZSTD_nextInputSizeHint_MTorST.exit

31:                                               ; preds = %24
  %32 = getelementptr inbounds nuw i8, ptr %0, i64 776
  %33 = load i64, ptr %32, align 8, !tbaa !241
  br label %ZSTD_nextInputSizeHint_MTorST.exit

ZSTD_nextInputSizeHint_MTorST.exit:               ; preds = %31, %24, %18, %10, %3
  %.1 = phi i64 [ %4, %3 ], [ %13, %10 ], [ %23, %18 ], [ %33, %31 ], [ %29, %24 ]
  ret i64 %.1
}